target datalayout = "e-m:e-p270:32:32-p271:32:32-p272:64:64-i64:64-i128:128-f80:128-n8:16:32:64-S128"
target triple = "x86_64-unknown-linux-gnu"

%class.arith_rewriter_core = type <{ ptr, %class.arith_util, %class.scoped_ptr, i8, i8, i8, [5 x i8] }>
%class.arith_util = type { ptr, ptr }
%class.scoped_ptr = type { ptr }
%class.arith_rewriter = type { %class.poly_rewriter.base, i8, i8, i8, i8, i8, i8, i8, i8, i32 }
%class.poly_rewriter.base = type <{ %class.arith_rewriter_core.base, [5 x i8], ptr, %class.obj_map.29, i8, i8, [2 x i8], i32, i8, i8, i8, i8 }>
%class.arith_rewriter_core.base = type <{ ptr, %class.arith_util, %class.scoped_ptr, i8, i8, i8 }>
%class.obj_map.29 = type { %class.core_hashtable.30 }
%class.core_hashtable.30 = type <{ ptr, i32, i32, i32, [4 x i8] }>
%class.decl = type { %class.ast, %class.symbol, ptr }
%class.ast = type { i32, i24, i32, i32 }
%class.symbol = type { ptr }
%class.app = type { %class.expr, ptr, i32, [0 x ptr] }
%class.expr = type { %class.ast }
%class.decl_info = type <{ i32, i32, %class.vector.71, i8, [7 x i8] }>
%class.vector.71 = type { ptr }

; Function Attrs: mustprogress nounwind uwtable
define linkonce_odr hidden noundef zeroext i1 @_ZNK9decl_info10is_decl_ofEii(ptr noundef nonnull align 8 dereferenceable(17) %this, i32 noundef %fid, i32 noundef %k) #5 comdat align 2 {
entry:
  %this.addr = alloca ptr, align 8
  %fid.addr = alloca i32, align 4
  %k.addr = alloca i32, align 4
  store ptr %this, ptr %this.addr, align 8
  store i32 %fid, ptr %fid.addr, align 4
  store i32 %k, ptr %k.addr, align 4
  %this1 = load ptr, ptr %this.addr, align 8
  %m_family_id = getelementptr inbounds %class.decl_info, ptr %this1, i32 0, i32 0
  %0 = load i32, ptr %m_family_id, align 8
  %1 = load i32, ptr %fid.addr, align 4
  %cmp = icmp eq i32 %0, %1
  br i1 %cmp, label %land.rhs, label %land.end

land.rhs:                                         ; preds = %entry
  %2 = load i32, ptr %k.addr, align 4
  %m_kind = getelementptr inbounds %class.decl_info, ptr %this1, i32 0, i32 1
  %3 = load i32, ptr %m_kind, align 4
  %cmp2 = icmp eq i32 %2, %3
  br label %land.end

land.end:                                         ; preds = %land.rhs, %entry
  %4 = phi i1 [ false, %entry ], [ %cmp2, %land.rhs ]
  ret i1 %4
}

; Function Attrs: mustprogress uwtable
define linkonce_odr hidden noundef zeroext i1 @_ZNK4decl10is_decl_ofEii(ptr noundef nonnull align 8 dereferenceable(32) %this, i32 noundef %fid, i32 noundef %k) #4 comdat align 2 {
entry:
  %this.addr = alloca ptr, align 8
  %fid.addr = alloca i32, align 4
  %k.addr = alloca i32, align 4
  store ptr %this, ptr %this.addr, align 8
  store i32 %fid, ptr %fid.addr, align 4
  store i32 %k, ptr %k.addr, align 4
  %this1 = load ptr, ptr %this.addr, align 8
  %m_info = getelementptr inbounds %class.decl, ptr %this1, i32 0, i32 2
  %0 = load ptr, ptr %m_info, align 8
  %tobool = icmp ne ptr %0, null
  br i1 %tobool, label %land.rhs, label %land.end

land.rhs:                                         ; preds = %entry
  %m_info2 = getelementptr inbounds %class.decl, ptr %this1, i32 0, i32 2
  %1 = load ptr, ptr %m_info2, align 8
  %2 = load i32, ptr %fid.addr, align 4
  %3 = load i32, ptr %k.addr, align 4
  %call = call noundef zeroext i1 @_ZNK9decl_info10is_decl_ofEii(ptr noundef nonnull align 8 dereferenceable(17) %1, i32 noundef %2, i32 noundef %3)
  br label %land.end

land.end:                                         ; preds = %land.rhs, %entry
  %4 = phi i1 [ false, %entry ], [ %call, %land.rhs ]
  ret i1 %4
}

; Function Attrs: mustprogress uwtable
define linkonce_odr hidden noundef zeroext i1 @_ZNK3app9is_app_ofEii(ptr noundef nonnull align 8 dereferenceable(32) %this, i32 noundef %fid, i32 noundef %k) #4 comdat align 2 {
entry:
  %this.addr = alloca ptr, align 8
  %fid.addr = alloca i32, align 4
  %k.addr = alloca i32, align 4
  store ptr %this, ptr %this.addr, align 8
  store i32 %fid, ptr %fid.addr, align 4
  store i32 %k, ptr %k.addr, align 4
  %this1 = load ptr, ptr %this.addr, align 8
  %m_decl = getelementptr inbounds %class.app, ptr %this1, i32 0, i32 1
  %0 = load ptr, ptr %m_decl, align 8
  %1 = load i32, ptr %fid.addr, align 4
  %2 = load i32, ptr %k.addr, align 4
  %call = call noundef zeroext i1 @_ZNK4decl10is_decl_ofEii(ptr noundef nonnull align 8 dereferenceable(32) %0, i32 noundef %1, i32 noundef %2)
  ret i1 %call
}

; Function Attrs: mustprogress nounwind uwtable
define linkonce_odr hidden noundef ptr @_Z6to_appPK3ast(ptr noundef %n) #5 comdat {
entry:
  %n.addr = alloca ptr, align 8
  store ptr %n, ptr %n.addr, align 8
  %0 = load ptr, ptr %n.addr, align 8
  ret ptr %0
}

; Function Attrs: mustprogress nounwind uwtable
define linkonce_odr hidden noundef i32 @_ZNK3ast8get_kindEv(ptr noundef nonnull align 4 dereferenceable(16) %this) #5 comdat align 2 {
entry:
  %this.addr = alloca ptr, align 8
  store ptr %this, ptr %this.addr, align 8
  %this1 = load ptr, ptr %this.addr, align 8
  %m_kind = getelementptr inbounds %class.ast, ptr %this1, i32 0, i32 1
  %bf.load = load i32, ptr %m_kind, align 4
  %bf.clear = and i32 %bf.load, 65535
  ret i32 %bf.clear
}

; Function Attrs: mustprogress uwtable
define linkonce_odr hidden noundef zeroext i1 @_Z9is_app_ofPK4exprii(ptr noundef %n, i32 noundef %fid, i32 noundef %k) #4 comdat {
entry:
  %n.addr = alloca ptr, align 8
  %fid.addr = alloca i32, align 4
  %k.addr = alloca i32, align 4
  store ptr %n, ptr %n.addr, align 8
  store i32 %fid, ptr %fid.addr, align 4
  store i32 %k, ptr %k.addr, align 4
  %0 = load ptr, ptr %n.addr, align 8
  %call = call noundef i32 @_ZNK3ast8get_kindEv(ptr noundef nonnull align 4 dereferenceable(16) %0)
  %cmp = icmp eq i32 %call, 0
  br i1 %cmp, label %land.rhs, label %land.end

land.rhs:                                         ; preds = %entry
  %1 = load ptr, ptr %n.addr, align 8
  %call1 = call noundef ptr @_Z6to_appPK3ast(ptr noundef %1)
  %2 = load i32, ptr %fid.addr, align 4
  %3 = load i32, ptr %k.addr, align 4
  %call2 = call noundef zeroext i1 @_ZNK3app9is_app_ofEii(ptr noundef nonnull align 8 dereferenceable(32) %call1, i32 noundef %2, i32 noundef %3)
  br label %land.end

land.end:                                         ; preds = %land.rhs, %entry
  %4 = phi i1 [ false, %entry ], [ %call2, %land.rhs ]
  ret i1 %4
}

; Function Attrs: mustprogress uwtable
define linkonce_odr hidden noundef nonnull align 8 dereferenceable(441) ptr @_ZNK10arith_util6pluginEv(ptr noundef nonnull align 8 dereferenceable(16) %this) #4 comdat align 2 {
entry:
  %this.addr = alloca ptr, align 8
  store ptr %this, ptr %this.addr, align 8
  %this1 = load ptr, ptr %this.addr, align 8
  %m_plugin = getelementptr inbounds %class.arith_util, ptr %this1, i32 0, i32 1
  %0 = load ptr, ptr %m_plugin, align 8
  %tobool = icmp ne ptr %0, null
  br i1 %tobool, label %if.end, label %if.then

if.then:                                          ; preds = %entry
  call void @_ZN10arith_util11init_pluginEv(ptr noundef nonnull align 8 dereferenceable(16) %this1)
  br label %if.end

if.end:                                           ; preds = %if.then, %entry
  %m_plugin2 = getelementptr inbounds %class.arith_util, ptr %this1, i32 0, i32 1
  %1 = load ptr, ptr %m_plugin2, align 8
  ret ptr %1
}

; Function Attrs: mustprogress uwtable
define linkonce_odr hidden noundef zeroext i1 @_ZNK17arith_recognizers10is_numeralEPK4expr(ptr noundef nonnull align 1 dereferenceable(1) %this, ptr noundef %n) #4 comdat align 2 {
entry:
  %this.addr = alloca ptr, align 8
  %n.addr = alloca ptr, align 8
  store ptr %this, ptr %this.addr, align 8
  store ptr %n, ptr %n.addr, align 8
  %0 = load ptr, ptr %n.addr, align 8
  %call = call noundef zeroext i1 @_Z9is_app_ofPK4exprii(ptr noundef %0, i32 noundef 5, i32 noundef 0)
  ret i1 %call
}

; Function Attrs: mustprogress uwtable
define linkonce_odr hidden noundef nonnull align 8 dereferenceable(17) ptr @_ZNK10arith_util2amEv(ptr noundef nonnull align 8 dereferenceable(16) %this) #4 comdat align 2 {
entry:
  %this.addr = alloca ptr, align 8
  store ptr %this, ptr %this.addr, align 8
  %this1 = load ptr, ptr %this.addr, align 8
  %call = call noundef nonnull align 8 dereferenceable(441) ptr @_ZNK10arith_util6pluginEv(ptr noundef nonnull align 8 dereferenceable(16) %this1)
  %call2 = call noundef nonnull align 8 dereferenceable(17) ptr @_ZNK17arith_decl_plugin2amEv(ptr noundef nonnull align 8 dereferenceable(441) %call)
  ret ptr %call2
}

; Function Attrs: mustprogress uwtable
define linkonce_odr hidden noundef zeroext i1 @_ZNK10arith_util10is_numeralEPK4expr(ptr noundef nonnull align 8 dereferenceable(16) %this, ptr noundef %n) #4 comdat align 2 {
entry:
  %this.addr = alloca ptr, align 8
  %n.addr = alloca ptr, align 8
  store ptr %this, ptr %this.addr, align 8
  store ptr %n, ptr %n.addr, align 8
  %this1 = load ptr, ptr %this.addr, align 8
  %0 = load ptr, ptr %n.addr, align 8
  %call = call noundef zeroext i1 @_ZNK17arith_recognizers10is_numeralEPK4expr(ptr noundef nonnull align 1 dereferenceable(1) %this1, ptr noundef %0)
  ret i1 %call
}

; Function Attrs: mustprogress uwtable
define hidden noundef zeroext i1 @_ZN14arith_rewriter19is_anum_simp_targetEjPKP4expr(ptr noundef nonnull align 8 dereferenceable(96) %this, i32 noundef %num_args, ptr noundef %args) #4 align 2 {
entry:
  %retval = alloca i1, align 1
  %this.addr = alloca ptr, align 8
  %num_args.addr = alloca i32, align 4
  %args.addr = alloca ptr, align 8
  %num_irrat = alloca i32, align 4
  %num_rat = alloca i32, align 4
  %i = alloca i32, align 4
  store ptr %this, ptr %this.addr, align 8
  store i32 %num_args, ptr %num_args.addr, align 4
  store ptr %args, ptr %args.addr, align 8
  %this1 = load ptr, ptr %this.addr, align 8
  %m_anum_simp = getelementptr inbounds %class.arith_rewriter, ptr %this1, i32 0, i32 6
  %0 = load i8, ptr %m_anum_simp, align 1
  %tobool = trunc i8 %0 to i1
  br i1 %tobool, label %if.end, label %if.then

if.then:                                          ; preds = %entry
  store i1 false, ptr %retval, align 1
  br label %return

if.end:                                           ; preds = %entry
  store i32 0, ptr %num_irrat, align 4
  store i32 0, ptr %num_rat, align 4
  store i32 0, ptr %i, align 4
  br label %for.cond

for.cond:                                         ; preds = %for.inc, %if.end
  %1 = load i32, ptr %i, align 4
  %2 = load i32, ptr %num_args.addr, align 4
  %cmp = icmp ult i32 %1, %2
  br i1 %cmp, label %for.body, label %for.end

for.body:                                         ; preds = %for.cond
  %m_util = getelementptr inbounds %class.arith_rewriter_core, ptr %this1, i32 0, i32 1
  %3 = load ptr, ptr %args.addr, align 8
  %4 = load i32, ptr %i, align 4
  %idxprom = zext i32 %4 to i64
  %arrayidx = getelementptr inbounds ptr, ptr %3, i64 %idxprom
  %5 = load ptr, ptr %arrayidx, align 8
  %call = call noundef zeroext i1 @_ZNK10arith_util10is_numeralEPK4expr(ptr noundef nonnull align 8 dereferenceable(16) %m_util, ptr noundef %5)
  br i1 %call, label %if.then2, label %if.end6

if.then2:                                         ; preds = %for.body
  %6 = load i32, ptr %num_rat, align 4
  %inc = add i32 %6, 1
  store i32 %inc, ptr %num_rat, align 4
  %7 = load i32, ptr %num_irrat, align 4
  %cmp3 = icmp ugt i32 %7, 0
  br i1 %cmp3, label %if.then4, label %if.end5

if.then4:                                         ; preds = %if.then2
  store i1 true, ptr %retval, align 1
  br label %return

if.end5:                                          ; preds = %if.then2
  br label %if.end6

if.end6:                                          ; preds = %if.end5, %for.body
  %m_util7 = getelementptr inbounds %class.arith_rewriter_core, ptr %this1, i32 0, i32 1
  %8 = load ptr, ptr %args.addr, align 8
  %9 = load i32, ptr %i, align 4
  %idxprom8 = zext i32 %9 to i64
  %arrayidx9 = getelementptr inbounds ptr, ptr %8, i64 %idxprom8
  %10 = load ptr, ptr %arrayidx9, align 8
  %call10 = call noundef zeroext i1 @_ZNK17arith_recognizers31is_irrational_algebraic_numeralEPK4expr(ptr noundef nonnull align 1 dereferenceable(1) %m_util7, ptr noundef %10)
  br i1 %call10, label %land.lhs.true, label %if.end25

land.lhs.true:                                    ; preds = %if.end6
  %m_util11 = getelementptr inbounds %class.arith_rewriter_core, ptr %this1, i32 0, i32 1
  %call12 = call noundef nonnull align 8 dereferenceable(17) ptr @_ZNK10arith_util2amEv(ptr noundef nonnull align 8 dereferenceable(16) %m_util11)
  %m_util13 = getelementptr inbounds %class.arith_rewriter_core, ptr %this1, i32 0, i32 1
  %11 = load ptr, ptr %args.addr, align 8
  %12 = load i32, ptr %i, align 4
  %idxprom14 = zext i32 %12 to i64
  %arrayidx15 = getelementptr inbounds ptr, ptr %11, i64 %idxprom14
  %13 = load ptr, ptr %arrayidx15, align 8
  %call16 = call noundef nonnull align 8 dereferenceable(8) ptr @_ZNK10arith_util31to_irrational_algebraic_numeralEPK4expr(ptr noundef nonnull align 8 dereferenceable(16) %m_util13, ptr noundef %13)
  %call17 = call noundef i32 @_ZN17algebraic_numbers7manager6degreeERKNS_4anumE(ptr noundef nonnull align 8 dereferenceable(17) %call12, ptr noundef nonnull align 8 dereferenceable(8) %call16)
  %m_max_degree = getelementptr inbounds %class.arith_rewriter, ptr %this1, i32 0, i32 9
  %14 = load i32, ptr %m_max_degree, align 4
  %cmp18 = icmp ule i32 %call17, %14
  br i1 %cmp18, label %if.then19, label %if.end25

if.then19:                                        ; preds = %land.lhs.true
  %15 = load i32, ptr %num_irrat, align 4
  %inc20 = add i32 %15, 1
  store i32 %inc20, ptr %num_irrat, align 4
  %16 = load i32, ptr %num_irrat, align 4
  %cmp21 = icmp ugt i32 %16, 1
  br i1 %cmp21, label %if.then23, label %lor.lhs.false

lor.lhs.false:                                    ; preds = %if.then19
  %17 = load i32, ptr %num_rat, align 4
  %cmp22 = icmp ugt i32 %17, 0
  br i1 %cmp22, label %if.then23, label %if.end24

if.then23:                                        ; preds = %lor.lhs.false, %if.then19
  store i1 true, ptr %retval, align 1
  br label %return

if.end24:                                         ; preds = %lor.lhs.false
  br label %if.end25

if.end25:                                         ; preds = %if.end24, %land.lhs.true, %if.end6
  br label %for.inc

for.inc:                                          ; preds = %if.end25
  %18 = load i32, ptr %i, align 4
  %inc26 = add i32 %18, 1
  store i32 %inc26, ptr %i, align 4
  br label %for.cond, !llvm.loop !25

for.end:                                          ; preds = %for.cond
  store i1 false, ptr %retval, align 1
  br label %return

return:                                           ; preds = %for.end, %if.then23, %if.then4, %if.then
  %19 = load i1, ptr %retval, align 1
  ret i1 %19
}