; Function Attrs: mustprogress uwtable
define hidden noundef zeroext i1 @_ZN14arith_rewriter19is_anum_simp_targetEjPKP4expr(ptr noundef nonnull align 8 dereferenceable(96) %this, i32 noundef %num_args, ptr nocapture noundef readonly %args) local_unnamed_addr #3 align 2 {
entry:
  %m_anum_simp = getelementptr inbounds i8, ptr %this, i64 89
  %0 = load i8, ptr %m_anum_simp, align 1
  %1 = and i8 %0, 1
  %tobool.not = icmp ne i8 %1, 0
  %cmp10 = icmp ne i32 %num_args, 0
  %or.cond16 = and i1 %tobool.not, %cmp10
  br i1 %or.cond16, label %for.body.lr.ph, label %return

for.body.lr.ph:                                   ; preds = %entry
  %m_util = getelementptr inbounds i8, ptr %this, i64 8
  %m_plugin.i.i = getelementptr inbounds i8, ptr %this, i64 16
  %m_max_degree = getelementptr inbounds i8, ptr %this, i64 92
  %wide.trip.count = zext i32 %num_args to i64
  br label %for.body

for.body:                                         ; preds = %for.body.lr.ph, %for.inc
  %indvars.iv = phi i64 [ 0, %for.body.lr.ph ], [ %indvars.iv.next, %for.inc ]
  %num_rat.012 = phi i32 [ 0, %for.body.lr.ph ], [ %num_rat.1, %for.inc ]
  %num_irrat.011 = phi i32 [ 0, %for.body.lr.ph ], [ %num_irrat.1, %for.inc ]
  %arrayidx = getelementptr inbounds ptr, ptr %args, i64 %indvars.iv
  %2 = load ptr, ptr %arrayidx, align 8
  %m_kind.i.i.i.i = getelementptr inbounds i8, ptr %2, i64 4
  %bf.load.i.i.i.i = load i32, ptr %m_kind.i.i.i.i, align 4
  %bf.clear.i.i.i.i = and i32 %bf.load.i.i.i.i, 65535
  %cmp.i.i.i = icmp eq i32 %bf.clear.i.i.i.i, 0
  br i1 %cmp.i.i.i, label %land.rhs.i.i.i, label %if.end6

land.rhs.i.i.i:                                   ; preds = %for.body
  %m_decl.i.i.i.i = getelementptr inbounds i8, ptr %2, i64 16
  %3 = load ptr, ptr %m_decl.i.i.i.i, align 8
  %m_info.i.i.i.i.i = getelementptr inbounds i8, ptr %3, i64 24
  %4 = load ptr, ptr %m_info.i.i.i.i.i, align 8
  %tobool.not.i.i.i.i.i = icmp eq ptr %4, null
  br i1 %tobool.not.i.i.i.i.i, label %if.end6, label %_ZNK10arith_util10is_numeralEPK4expr.exit

_ZNK10arith_util10is_numeralEPK4expr.exit:        ; preds = %land.rhs.i.i.i
  %5 = load i32, ptr %4, align 8
  %cmp.i.i.i.i.i.i = icmp eq i32 %5, 5
  %m_kind.i.i.i.i.i.i = getelementptr inbounds i8, ptr %4, i64 4
  %6 = load i32, ptr %m_kind.i.i.i.i.i.i, align 4
  %cmp2.i.i.i.i.i.i = icmp eq i32 %6, 0
  %7 = select i1 %cmp.i.i.i.i.i.i, i1 %cmp2.i.i.i.i.i.i, i1 false
  br i1 %7, label %if.then2, label %if.end6

if.then2:                                         ; preds = %_ZNK10arith_util10is_numeralEPK4expr.exit
  %inc = add i32 %num_rat.012, 1
  %cmp3.not = icmp eq i32 %num_irrat.011, 0
  br i1 %cmp3.not, label %if.end6, label %return

if.end6:                                          ; preds = %land.rhs.i.i.i, %for.body, %if.then2, %_ZNK10arith_util10is_numeralEPK4expr.exit
  %num_rat.1 = phi i32 [ %inc, %if.then2 ], [ %num_rat.012, %_ZNK10arith_util10is_numeralEPK4expr.exit ], [ %num_rat.012, %for.body ], [ %num_rat.012, %land.rhs.i.i.i ]
  %call10 = tail call noundef zeroext i1 @_ZNK17arith_recognizers31is_irrational_algebraic_numeralEPK4expr(ptr noundef nonnull align 1 dereferenceable(1) %m_util, ptr noundef nonnull %2)
  br i1 %call10, label %land.lhs.true, label %for.inc

land.lhs.true:                                    ; preds = %if.end6
  %8 = load ptr, ptr %m_plugin.i.i, align 8
  %tobool.not.i.i = icmp eq ptr %8, null
  br i1 %tobool.not.i.i, label %if.then.i.i, label %_ZNK10arith_util2amEv.exit

if.then.i.i:                                      ; preds = %land.lhs.true
  tail call void @_ZN10arith_util11init_pluginEv(ptr noundef nonnull align 8 dereferenceable(16) %m_util)
  %.pre.i.i = load ptr, ptr %m_plugin.i.i, align 8
  br label %_ZNK10arith_util2amEv.exit

_ZNK10arith_util2amEv.exit:                       ; preds = %land.lhs.true, %if.then.i.i
  %9 = phi ptr [ %.pre.i.i, %if.then.i.i ], [ %8, %land.lhs.true ]
  %call2.i = tail call noundef nonnull align 8 dereferenceable(17) ptr @_ZNK17arith_decl_plugin2amEv(ptr noundef nonnull align 8 dereferenceable(441) %9)
  %10 = load ptr, ptr %arrayidx, align 8
  %call16 = tail call noundef nonnull align 8 dereferenceable(8) ptr @_ZNK10arith_util31to_irrational_algebraic_numeralEPK4expr(ptr noundef nonnull align 8 dereferenceable(16) %m_util, ptr noundef %10)
  %call17 = tail call noundef i32 @_ZN17algebraic_numbers7manager6degreeERKNS_4anumE(ptr noundef nonnull align 8 dereferenceable(17) %call2.i, ptr noundef nonnull align 8 dereferenceable(8) %call16)
  %11 = load i32, ptr %m_max_degree, align 4
  %cmp18.not = icmp ugt i32 %call17, %11
  br i1 %cmp18.not, label %for.inc, label %if.then19

if.then19:                                        ; preds = %_ZNK10arith_util2amEv.exit
  %cmp21 = icmp ne i32 %num_irrat.011, 0
  %cmp22 = icmp ne i32 %num_rat.1, 0
  %or.cond = select i1 %cmp21, i1 true, i1 %cmp22
  br i1 %or.cond, label %return, label %for.inc

for.inc:                                          ; preds = %if.end6, %_ZNK10arith_util2amEv.exit, %if.then19
  %num_irrat.1 = phi i32 [ 1, %if.then19 ], [ %num_irrat.011, %_ZNK10arith_util2amEv.exit ], [ %num_irrat.011, %if.end6 ]
  %indvars.iv.next = add nuw nsw i64 %indvars.iv, 1
  %exitcond.not = icmp eq i64 %indvars.iv.next, %wide.trip.count
  br i1 %exitcond.not, label %return, label %for.body, !llvm.loop !109

return:                                           ; preds = %if.then2, %if.then19, %for.inc, %entry
  %retval.0 = phi i1 [ false, %entry ], [ true, %if.then2 ], [ true, %if.then19 ], [ false, %for.inc ]
  ret i1 %retval.0
}